Certificate:
    Data:
        Version: 3 (0x2)
        Serial Number: 4097 (0x1001)
    Signature Algorithm: md5WithRSAEncryption
        Issuer: C=us, ST=ut, L=salt lake city, O=utah.edu, OU=msd, CN=caCerts/emailAddress=justin.siebenhaar@utah.edu
        Validity
            Not Before: Mar 22 17:32:36 2021 GMT
            Not After : Mar 22 17:32:36 2022 GMT
        Subject: C=us, ST=ut, O=utah.edu, OU=msd, CN=clientCerts/emailAddress=justin.siebenhaar@utah.edu
        Subject Public Key Info:
            Public Key Algorithm: rsaEncryption
                Public-Key: (4096 bit)
                Modulus:
                    00:ba:03:c8:cd:e1:de:8d:46:f8:58:4c:54:18:26:
                    8d:05:da:98:97:fa:6c:eb:42:95:3d:dc:a6:b1:5f:
                    52:eb:2b:d5:73:ea:17:2a:92:ec:c0:5a:2b:45:50:
                    c2:1d:ed:28:30:ca:7f:f2:70:7b:c8:b0:c3:b6:b3:
                    7f:5c:35:85:ce:2b:2f:1e:d2:02:35:d9:7e:dd:eb:
                    c6:31:fe:5f:f4:23:36:59:16:6f:ba:d9:34:f0:0f:
                    0f:db:31:72:26:aa:a5:fe:bd:5f:a0:d0:e0:97:6a:
                    17:0d:dd:57:ce:cb:0b:8b:5f:a4:e9:e5:71:7c:23:
                    ad:33:80:a6:90:ab:dc:9c:0d:0e:b4:5c:96:11:f0:
                    77:d4:9c:37:0e:1f:87:a3:83:a6:6d:e1:5c:84:47:
                    09:a0:6f:fa:97:bd:76:37:b2:c6:d9:ef:4e:a2:0d:
                    d8:1f:85:e2:ce:1c:bb:38:1c:b4:ba:43:b1:5c:f9:
                    fd:6d:35:4c:45:7e:82:f5:fa:e1:8c:30:f9:a0:9f:
                    3a:e5:94:3f:90:5a:cb:d5:a6:3a:4b:8e:9d:97:6e:
                    05:0a:a1:f8:8c:f9:53:8a:8f:07:11:fc:b3:ba:45:
                    0c:5b:28:2e:36:32:55:bb:5c:d5:14:f2:f7:01:76:
                    ec:33:9e:6f:f4:5d:96:97:5f:d6:07:4b:5f:e7:c4:
                    79:eb:ad:23:92:9a:52:17:d5:97:09:ab:8b:ee:61:
                    e3:89:1f:99:f8:0d:16:40:46:0f:c8:ce:8f:60:20:
                    1b:28:f8:e3:d0:7f:57:b6:fc:b7:e0:be:e2:3a:95:
                    e1:73:47:60:99:41:44:24:38:4e:80:3e:03:ab:87:
                    1a:80:1a:64:3a:3a:b4:ab:d4:4e:e6:76:cf:77:ab:
                    2f:a4:18:0e:12:0b:85:4a:36:9f:17:12:e2:8f:6e:
                    6a:34:3e:7a:94:5b:96:e8:5b:d6:e0:70:ad:40:29:
                    04:13:9b:17:d5:81:79:08:5a:c2:61:c7:d1:3d:8e:
                    5f:f4:de:22:85:a0:3d:54:30:ae:f9:0f:b4:56:c1:
                    df:16:3b:21:e6:c8:f0:1c:73:f3:db:c2:2d:a8:13:
                    44:9f:c3:be:6f:c5:1d:52:64:1e:be:6b:51:d6:0f:
                    68:58:7d:23:d5:da:08:56:c3:39:24:46:7f:91:71:
                    ec:06:c8:ed:e3:7b:17:e2:9b:28:49:1a:b1:66:92:
                    a9:9f:58:e1:8c:dc:b7:51:31:eb:c3:3c:83:28:4b:
                    b9:a2:e0:80:b6:3c:cc:37:8f:d2:e7:6a:81:80:f3:
                    3b:e3:17:b7:2f:89:30:e3:c2:44:d4:3b:1f:40:95:
                    08:db:88:42:d1:ee:2d:17:7a:d3:c5:cf:9b:08:98:
                    2e:c8:d1
                Exponent: 65537 (0x10001)
        X509v3 extensions:
            X509v3 Basic Constraints: 
                CA:FALSE
            Netscape Comment: 
                OpenSSL Generated Certificate
            X509v3 Subject Key Identifier: 
                A8:CB:6B:E9:51:35:22:1D:44:B1:3D:CC:6C:C0:CB:2A:44:21:11:87
            X509v3 Authority Key Identifier: 
                DirName:/C=us/ST=ut/L=salt lake city/O=utah.edu/OU=msd/CN=caCerts/emailAddress=justin.siebenhaar@utah.edu
                serial:87:B8:93:BF:E3:F8:41:5C

    Signature Algorithm: md5WithRSAEncryption
         a3:5d:96:bd:12:26:b4:47:2e:7b:49:fa:91:6c:1c:d5:3f:e9:
         a6:c2:c6:51:71:7f:9a:06:8b:de:44:0d:a1:5a:cb:74:fa:51:
         64:85:30:e5:d3:2c:d6:42:19:87:88:34:18:72:fd:c7:75:8d:
         ba:cd:71:b2:3e:eb:62:91:1e:bf:2e:4e:66:ba:be:e3:f6:2d:
         be:32:b9:58:c0:a2:46:bc:f7:a7:ea:74:06:4f:b2:46:d8:28:
         13:cc:25:13:d2:a5:a7:10:21:dd:d5:0c:c0:38:6d:2a:43:58:
         7e:83:91:5a:45:ba:ae:c3:00:68:36:6e:6b:0b:b5:4d:78:3d:
         f7:4b:1c:74:35:73:42:c7:c1:8b:ae:e8:a4:bb:16:d7:60:99:
         f9:98:5e:9f:cc:4a:08:1d:8e:43:1c:77:18:06:46:2b:fa:65:
         8b:34:05:51:ef:a0:c9:32:99:0a:18:b9:31:e3:be:3b:cf:ac:
         ff:e3:e6:6b:57:da:36:f0:ed:64:f3:f6:c9:3a:42:41:18:ae:
         bf:3f:80:95:31:cb:6b:c1:f9:e5:e9:96:c8:f8:d1:d3:b2:36:
         fe:3e:ff:28:b2:fc:f8:2c:19:29:bb:80:75:db:e5:39:00:48:
         9d:ef:0b:bc:33:b1:56:85:47:4e:b4:41:f9:e9:b3:da:e1:e7:
         44:d3:90:99:c3:05:0d:94:f9:d8:75:f2:45:5b:76:78:b3:34:
         9e:63:40:13:7a:c4:01:43:ab:c1:35:2f:be:be:ed:86:3f:f0:
         fb:43:02:6d:59:9f:dd:ea:5f:73:c3:b6:c3:bd:57:d8:29:0c:
         a7:6e:73:c1:af:2f:12:f6:99:49:e7:0f:24:1f:d5:28:51:18:
         22:3a:f0:13:42:e8:50:ab:7f:ff:37:bc:3f:9f:ec:15:d9:78:
         e7:d7:34:f8:a2:74:08:0a:bc:73:53:0f:16:8c:f8:eb:2f:c3:
         8f:90:37:21:12:89:5d:31:39:02:e3:4b:a7:7c:3d:c9:97:bf:
         d5:7f:59:b4:03:58:c9:bc:43:98:57:b7:e5:1b:c0:9d:32:ed:
         a3:91:7d:cc:f7:4b:06:df:46:c0:72:1d:31:a1:c2:ec:14:48:
         3b:6e:52:8b:80:c0:af:ae:42:96:d7:86:76:a9:af:8b:12:c8:
         b3:89:78:09:16:b5:b6:21:c0:4c:5c:df:31:77:58:1d:e8:43:
         ba:db:d2:30:f7:93:f6:08:5a:6f:6b:95:74:ef:81:cf:25:cc:
         a8:6d:d3:39:7a:f3:65:35:f9:30:fd:8b:00:fd:83:61:25:00:
         32:b7:db:60:83:0e:93:cf:e8:87:ec:fd:d2:00:1f:06:9a:c0:
         7e:a6:13:b1:c0:cb:d6:5e
-----BEGIN CERTIFICATE-----
MIIGmzCCBIOgAwIBAgICEAEwDQYJKoZIhvcNAQEEBQAwgZExCzAJBgNVBAYTAnVz
MQswCQYDVQQIDAJ1dDEXMBUGA1UEBwwOc2FsdCBsYWtlIGNpdHkxETAPBgNVBAoM
CHV0YWguZWR1MQwwCgYDVQQLDANtc2QxEDAOBgNVBAMMB2NhQ2VydHMxKTAnBgkq
hkiG9w0BCQEWGmp1c3Rpbi5zaWViZW5oYWFyQHV0YWguZWR1MB4XDTIxMDMyMjE3
MzIzNloXDTIyMDMyMjE3MzIzNlowfDELMAkGA1UEBhMCdXMxCzAJBgNVBAgMAnV0
MREwDwYDVQQKDAh1dGFoLmVkdTEMMAoGA1UECwwDbXNkMRQwEgYDVQQDDAtjbGll
bnRDZXJ0czEpMCcGCSqGSIb3DQEJARYaanVzdGluLnNpZWJlbmhhYXJAdXRhaC5l
ZHUwggIiMA0GCSqGSIb3DQEBAQUAA4ICDwAwggIKAoICAQC6A8jN4d6NRvhYTFQY
Jo0F2piX+mzrQpU93KaxX1LrK9Vz6hcqkuzAWitFUMId7Sgwyn/ycHvIsMO2s39c
NYXOKy8e0gI12X7d68Yx/l/0IzZZFm+62TTwDw/bMXImqqX+vV+g0OCXahcN3VfO
ywuLX6Tp5XF8I60zgKaQq9ycDQ60XJYR8HfUnDcOH4ejg6Zt4VyERwmgb/qXvXY3
ssbZ706iDdgfheLOHLs4HLS6Q7Fc+f1tNUxFfoL1+uGMMPmgnzrllD+QWsvVpjpL
jp2XbgUKofiM+VOKjwcR/LO6RQxbKC42MlW7XNUU8vcBduwznm/0XZaXX9YHS1/n
xHnrrSOSmlIX1ZcJq4vuYeOJH5n4DRZARg/Izo9gIBso+OPQf1e2/LfgvuI6leFz
R2CZQUQkOE6APgOrhxqAGmQ6OrSr1E7mds93qy+kGA4SC4VKNp8XEuKPbmo0PnqU
W5boW9bgcK1AKQQTmxfVgXkIWsJhx9E9jl/03iKFoD1UMK75D7RWwd8WOyHmyPAc
c/Pbwi2oE0Sfw75vxR1SZB6+a1HWD2hYfSPV2ghWwzkkRn+RcewGyO3jexfimyhJ
GrFmkqmfWOGM3LdRMevDPIMoS7mi4IC2PMw3j9LnaoGA8zvjF7cviTDjwkTUOx9A
lQjbiELR7i0XetPFz5sImC7I0QIDAQABo4IBDzCCAQswCQYDVR0TBAIwADAsBglg
hkgBhvhCAQ0EHxYdT3BlblNTTCBHZW5lcmF0ZWQgQ2VydGlmaWNhdGUwHQYDVR0O
BBYEFKjLa+lRNSIdRLE9zGzAyypEIRGHMIGwBgNVHSMEgagwgaWhgZekgZQwgZEx
CzAJBgNVBAYTAnVzMQswCQYDVQQIDAJ1dDEXMBUGA1UEBwwOc2FsdCBsYWtlIGNp
dHkxETAPBgNVBAoMCHV0YWguZWR1MQwwCgYDVQQLDANtc2QxEDAOBgNVBAMMB2Nh
Q2VydHMxKTAnBgkqhkiG9w0BCQEWGmp1c3Rpbi5zaWViZW5oYWFyQHV0YWguZWR1
ggkAh7iTv+P4QVwwDQYJKoZIhvcNAQEEBQADggIBAKNdlr0SJrRHLntJ+pFsHNU/
6abCxlFxf5oGi95EDaFay3T6UWSFMOXTLNZCGYeINBhy/cd1jbrNcbI+62KRHr8u
Tma6vuP2Lb4yuVjAoka896fqdAZPskbYKBPMJRPSpacQId3VDMA4bSpDWH6DkVpF
uq7DAGg2bmsLtU14PfdLHHQ1c0LHwYuu6KS7FtdgmfmYXp/MSggdjkMcdxgGRiv6
ZYs0BVHvoMkymQoYuTHjvjvPrP/j5mtX2jbw7WTz9sk6QkEYrr8/gJUxy2vB+eXp
lsj40dOyNv4+/yiy/PgsGSm7gHXb5TkASJ3vC7wzsVaFR060Qfnps9rh50TTkJnD
BQ2U+dh18kVbdnizNJ5jQBN6xAFDq8E1L76+7YY/8PtDAm1Zn93qX3PDtsO9V9gp
DKduc8GvLxL2mUnnDyQf1ShRGCI68BNC6FCrf/83vD+f7BXZeOfXNPiidAgKvHNT
DxaM+Osvw4+QNyESiV0xOQLjS6d8PcmXv9V/WbQDWMm8Q5hXt+UbwJ0y7aORfcz3
SwbfRsByHTGhwuwUSDtuUouAwK+uQpbXhnapr4sSyLOJeAkWtbYhwExc3zF3WB3o
Q7rb0jD3k/YIWm9rlXTvgc8lzKht0zl682U1+TD9iwD9g2ElADK322CDDpPP6Ifs
/dIAHwaawH6mE7HAy9Ze
-----END CERTIFICATE-----
