Certificate:
    Data:
        Version: 3 (0x2)
        Serial Number: 4096 (0x1000)
    Signature Algorithm: md5WithRSAEncryption
        Issuer: C=us, ST=ut, L=salt lake city, O=utah.edu, OU=msd, CN=caCerts/emailAddress=justin.siebenhaar@utah.edu
        Validity
            Not Before: Mar 22 17:32:12 2021 GMT
            Not After : Mar 22 17:32:12 2022 GMT
        Subject: C=us, ST=ut, O=utah.edu, OU=msd, CN=serverCerts/emailAddress=justin.siebenhaar@utah.edu
        Subject Public Key Info:
            Public Key Algorithm: rsaEncryption
                Public-Key: (4096 bit)
                Modulus:
                    00:cc:78:22:97:01:12:4b:6f:6b:c0:a2:63:27:29:
                    02:54:ce:33:aa:1b:e3:b1:44:b4:db:96:71:8e:be:
                    c9:a1:50:b3:3c:38:2d:7e:9f:9e:6a:3d:8a:f4:7f:
                    08:c1:1b:13:91:37:27:76:21:c3:c1:69:46:2e:64:
                    20:87:2e:8d:bc:fc:45:87:e6:e1:65:6d:ed:8e:a9:
                    9c:34:c6:84:99:4d:8d:50:a9:fb:df:80:e8:b4:6e:
                    39:31:df:dd:15:a3:ae:b6:c3:14:a9:37:73:c4:8f:
                    4c:ec:e8:d9:4e:6b:c8:c5:b4:6c:c6:be:8f:67:0b:
                    54:91:50:25:81:66:f9:e7:eb:6c:1d:7a:ab:de:a5:
                    ba:7c:8f:92:02:0a:f3:62:69:1e:5f:2b:90:af:9c:
                    f3:bd:4d:8f:e4:f9:1c:44:13:17:89:b4:ff:96:78:
                    8e:16:7d:eb:07:ea:e0:6a:45:9a:5f:64:5d:44:f9:
                    f2:e6:6f:43:9b:cc:25:25:1a:f2:5e:c6:d8:8c:15:
                    39:47:05:ab:85:f3:4a:e5:46:71:3d:e9:52:45:a7:
                    33:47:d8:3e:49:41:61:be:58:6d:1f:b4:2d:0e:a3:
                    3f:51:0f:1b:d5:09:5c:b1:21:c5:35:3c:50:be:61:
                    46:5b:f5:6d:a6:f5:0d:c7:a4:72:ad:fe:05:f1:d8:
                    8b:3c:a9:5b:92:00:73:4d:55:31:55:b9:e2:3d:08:
                    c9:1b:27:df:7a:1e:c8:bb:b3:09:67:b1:11:c8:a3:
                    36:d9:af:3a:9a:20:92:c7:d6:27:32:79:46:e6:fc:
                    90:5f:c8:1d:1f:b4:10:f2:a3:a3:75:77:f5:8d:98:
                    b7:41:0e:b4:e1:82:b3:9e:b0:47:5e:bb:18:65:88:
                    cd:05:c7:e1:07:20:a1:54:06:c3:77:88:f7:0e:19:
                    31:56:03:13:bc:fb:cb:ae:8f:43:75:e5:1f:9c:f1:
                    9b:12:0d:14:9e:f6:26:cf:fe:56:1c:9b:2c:a8:62:
                    a1:bc:b5:35:36:c7:bb:21:48:67:08:8d:69:8a:d7:
                    0f:17:50:3f:05:c9:65:6d:f5:ad:4a:4c:53:10:4a:
                    2a:0f:85:61:85:48:1c:5c:a3:31:cf:a2:35:8f:72:
                    b3:50:24:83:33:fa:f2:94:f5:14:79:77:ba:09:76:
                    d6:a1:58:ec:93:fb:5a:c6:2e:d2:80:99:da:d9:0a:
                    33:23:c3:ab:7b:cf:c7:e2:5c:9f:d8:83:86:66:80:
                    40:95:8a:7d:d3:ab:8d:7a:e5:13:3b:d2:a5:06:83:
                    63:bb:06:e0:95:88:63:ed:a3:67:3e:7f:d5:d3:66:
                    8e:ea:98:8e:35:96:8e:28:46:e0:ee:0d:88:60:ea:
                    cc:2d:8b
                Exponent: 65537 (0x10001)
        X509v3 extensions:
            X509v3 Basic Constraints: 
                CA:FALSE
            Netscape Comment: 
                OpenSSL Generated Certificate
            X509v3 Subject Key Identifier: 
                13:F5:15:FC:FB:5F:66:1D:21:A7:C9:CD:6D:58:A4:2C:ED:9B:DF:AD
            X509v3 Authority Key Identifier: 
                DirName:/C=us/ST=ut/L=salt lake city/O=utah.edu/OU=msd/CN=caCerts/emailAddress=justin.siebenhaar@utah.edu
                serial:87:B8:93:BF:E3:F8:41:5C

    Signature Algorithm: md5WithRSAEncryption
         95:a0:8e:2b:10:4d:e8:62:71:c2:df:0e:7e:7c:38:31:d1:a4:
         74:7e:33:fd:68:92:da:31:00:10:91:56:e3:83:c0:14:2a:12:
         0d:98:99:df:11:95:a1:cd:94:f5:65:db:04:58:91:42:6d:1b:
         30:7a:41:b5:d4:8a:75:0d:89:b2:5c:d1:2c:04:51:e8:0a:a5:
         43:4c:10:98:94:46:d7:b0:0e:c9:12:28:98:89:d7:a5:32:76:
         12:c6:99:70:81:95:93:b3:a3:76:dd:b6:48:7e:c4:74:61:19:
         9a:3a:90:e3:04:08:6a:ca:f0:8f:85:39:b6:b1:09:df:3c:be:
         f7:84:19:9e:74:dd:ac:7a:a6:ca:5e:7f:cd:f1:a4:a2:e2:24:
         ce:4e:55:ea:6b:3d:63:9a:8d:33:b4:bd:63:18:79:2c:e1:7b:
         9f:38:96:b6:d7:e1:47:9c:47:c6:df:23:32:bc:7e:10:bd:44:
         d8:71:74:7e:3b:76:d4:6f:42:e6:e1:ba:dc:0d:c4:f3:2e:7e:
         e3:b4:0a:c7:bd:33:8c:51:86:33:8a:83:65:85:45:0d:8a:9f:
         43:e9:9a:ad:ee:02:57:5f:8f:65:40:f7:00:99:12:51:28:76:
         1c:63:a9:2e:4a:92:54:78:21:01:78:10:17:00:9f:2a:6f:94:
         66:dc:38:f0:b1:d9:d9:09:8f:9c:20:f0:66:25:e9:ed:00:5b:
         bc:7f:ce:f5:91:69:03:7e:7d:27:90:2b:24:20:22:fb:65:72:
         8d:61:e6:7d:e2:11:62:a4:8f:17:b7:7b:ed:d3:08:c6:ea:9c:
         3b:52:8b:72:a7:a3:93:29:c5:35:99:00:70:fe:8e:65:84:13:
         46:04:e7:ab:f6:54:59:80:02:27:7e:da:37:a6:bc:25:d4:62:
         6f:1f:30:0b:0a:b8:0f:7d:36:2a:66:c2:34:82:16:18:22:9f:
         de:d8:9b:b1:ad:f3:67:eb:49:dd:55:a5:a1:14:4d:39:37:1a:
         22:19:49:b7:2e:1d:f2:52:ae:c0:40:0f:e5:09:f6:57:21:58:
         90:6b:a9:dc:50:9f:66:90:f2:8b:50:69:1e:0b:dc:b8:24:26:
         5b:23:34:13:71:84:20:5c:10:9c:89:99:b9:e2:15:1d:27:c5:
         c6:99:87:01:1a:d0:46:0b:54:6f:92:24:f6:ee:6a:2a:8e:3d:
         d5:f9:8a:d6:15:ac:f2:43:a7:21:d6:86:2e:0c:45:b9:3e:56:
         cc:d1:ad:42:2a:fb:5c:5c:f5:ce:ae:ba:25:c4:ba:92:06:d1:
         fb:7a:49:1b:e5:f8:c0:1d:a6:fc:f9:23:9e:69:e2:35:60:45:
         88:41:dd:83:1f:69:89:08
-----BEGIN CERTIFICATE-----
MIIGmzCCBIOgAwIBAgICEAAwDQYJKoZIhvcNAQEEBQAwgZExCzAJBgNVBAYTAnVz
MQswCQYDVQQIDAJ1dDEXMBUGA1UEBwwOc2FsdCBsYWtlIGNpdHkxETAPBgNVBAoM
CHV0YWguZWR1MQwwCgYDVQQLDANtc2QxEDAOBgNVBAMMB2NhQ2VydHMxKTAnBgkq
hkiG9w0BCQEWGmp1c3Rpbi5zaWViZW5oYWFyQHV0YWguZWR1MB4XDTIxMDMyMjE3
MzIxMloXDTIyMDMyMjE3MzIxMlowfDELMAkGA1UEBhMCdXMxCzAJBgNVBAgMAnV0
MREwDwYDVQQKDAh1dGFoLmVkdTEMMAoGA1UECwwDbXNkMRQwEgYDVQQDDAtzZXJ2
ZXJDZXJ0czEpMCcGCSqGSIb3DQEJARYaanVzdGluLnNpZWJlbmhhYXJAdXRhaC5l
ZHUwggIiMA0GCSqGSIb3DQEBAQUAA4ICDwAwggIKAoICAQDMeCKXARJLb2vAomMn
KQJUzjOqG+OxRLTblnGOvsmhULM8OC1+n55qPYr0fwjBGxORNyd2IcPBaUYuZCCH
Lo28/EWH5uFlbe2OqZw0xoSZTY1QqfvfgOi0bjkx390Vo662wxSpN3PEj0zs6NlO
a8jFtGzGvo9nC1SRUCWBZvnn62wdeqvepbp8j5ICCvNiaR5fK5CvnPO9TY/k+RxE
ExeJtP+WeI4WfesH6uBqRZpfZF1E+fLmb0ObzCUlGvJextiMFTlHBauF80rlRnE9
6VJFpzNH2D5JQWG+WG0ftC0Ooz9RDxvVCVyxIcU1PFC+YUZb9W2m9Q3HpHKt/gXx
2Is8qVuSAHNNVTFVueI9CMkbJ996Hsi7swlnsRHIozbZrzqaIJLH1icyeUbm/JBf
yB0ftBDyo6N1d/WNmLdBDrThgrOesEdeuxhliM0Fx+EHIKFUBsN3iPcOGTFWAxO8
+8uuj0N15R+c8ZsSDRSe9ibP/lYcmyyoYqG8tTU2x7shSGcIjWmK1w8XUD8FyWVt
9a1KTFMQSioPhWGFSBxcozHPojWPcrNQJIMz+vKU9RR5d7oJdtahWOyT+1rGLtKA
mdrZCjMjw6t7z8fiXJ/Yg4ZmgECVin3Tq4165RM70qUGg2O7BuCViGPto2c+f9XT
Zo7qmI41lo4oRuDuDYhg6swtiwIDAQABo4IBDzCCAQswCQYDVR0TBAIwADAsBglg
hkgBhvhCAQ0EHxYdT3BlblNTTCBHZW5lcmF0ZWQgQ2VydGlmaWNhdGUwHQYDVR0O
BBYEFBP1Ffz7X2YdIafJzW1YpCztm9+tMIGwBgNVHSMEgagwgaWhgZekgZQwgZEx
CzAJBgNVBAYTAnVzMQswCQYDVQQIDAJ1dDEXMBUGA1UEBwwOc2FsdCBsYWtlIGNp
dHkxETAPBgNVBAoMCHV0YWguZWR1MQwwCgYDVQQLDANtc2QxEDAOBgNVBAMMB2Nh
Q2VydHMxKTAnBgkqhkiG9w0BCQEWGmp1c3Rpbi5zaWViZW5oYWFyQHV0YWguZWR1
ggkAh7iTv+P4QVwwDQYJKoZIhvcNAQEEBQADggIBAJWgjisQTehiccLfDn58ODHR
pHR+M/1oktoxABCRVuODwBQqEg2Ymd8RlaHNlPVl2wRYkUJtGzB6QbXUinUNibJc
0SwEUegKpUNMEJiURtewDskSKJiJ16UydhLGmXCBlZOzo3bdtkh+xHRhGZo6kOME
CGrK8I+FObaxCd88vveEGZ503ax6pspef83xpKLiJM5OVeprPWOajTO0vWMYeSzh
e584lrbX4UecR8bfIzK8fhC9RNhxdH47dtRvQubhutwNxPMufuO0Cse9M4xRhjOK
g2WFRQ2Kn0Ppmq3uAldfj2VA9wCZElEodhxjqS5KklR4IQF4EBcAnypvlGbcOPCx
2dkJj5wg8GYl6e0AW7x/zvWRaQN+fSeQKyQgIvtlco1h5n3iEWKkjxe3e+3TCMbq
nDtSi3Kno5MpxTWZAHD+jmWEE0YE56v2VFmAAid+2jemvCXUYm8fMAsKuA99Nipm
wjSCFhgin97Ym7Gt82frSd1VpaEUTTk3GiIZSbcuHfJSrsBAD+UJ9lchWJBrqdxQ
n2aQ8otQaR4L3LgkJlsjNBNxhCBcEJyJmbniFR0nxcaZhwEa0EYLVG+SJPbuaiqO
PdX5itYVrPJDpyHWhi4MRbk+VszRrUIq+1xc9c6uuiXEupIG0ft6SRvl+MAdpvz5
I55p4jVgRYhB3YMfaYkI
-----END CERTIFICATE-----
